target datalayout = "e-m:e-p270:32:32-p271:32:32-p272:64:64-i64:64-i128:128-f80:128-n8:16:32:64-S128"
target triple = "x86_64-pc-linux-gnu"

@.str = private unnamed_addr constant [31 x i8] c"Failed to fork to test a crash\00", align 1
@__func__._ZN32pxrInternal_v0_24__pxrReserved__13ArchTestCrashENS_17ArchTestCrashModeE = private unnamed_addr constant [14 x i8] c"ArchTestCrash\00", align 1
@.str.1 = private unnamed_addr constant [132 x i8] c"generated/home/dtcxzyw/WorkSpace/Projects/compilers/llvm-opt-benchmark/bench/openusd/OpenUSD/pxr/base/arch/testenv/testArchUtil.cpp\00", align 1
@.str.2 = private unnamed_addr constant [41 x i8] c"[childPid == wait(&status)] axiom failed\00", align 1
@.str.3 = private unnamed_addr constant [26 x i8] c"[status > 1] axiom failed\00", align 1

; Function Attrs: mustprogress uwtable
define dso_local void @_ZN32pxrInternal_v0_24__pxrReserved__13ArchTestCrashENS_17ArchTestCrashModeE(i32 noundef %0) #0 {
  %2 = alloca i32, align 4
  %3 = alloca i32, align 4
  %4 = alloca i32, align 4
  store i32 %0, ptr %2, align 4
  %5 = call i32 @fork() #10
  store i32 %5, ptr %4, align 4
  %6 = icmp eq i32 %5, 0
  br i1 %6, label %7, label %9

7:                                                ; preds = %1
  %8 = load i32, ptr %2, align 4
  call void @_ZN32pxrInternal_v0_24__pxrReserved__12_GLOBAL__N_114Arch_TestCrashENS_17ArchTestCrashModeE(i32 noundef %8)
  call void @_exit(i32 noundef 0) #11
  unreachable

9:                                                ; preds = %1
  %10 = load i32, ptr %4, align 4
  %11 = icmp eq i32 %10, -1
  br i1 %11, label %12, label %13

12:                                               ; preds = %9
  call void @_ZN32pxrInternal_v0_24__pxrReserved__12Arch_WarningEPKcS1_mS1_(ptr noundef @.str, ptr noundef @__func__._ZN32pxrInternal_v0_24__pxrReserved__13ArchTestCrashENS_17ArchTestCrashModeE, i64 noundef 144, ptr noundef @.str.1)
  call void @_exit(i32 noundef 1) #11
  unreachable

13:                                               ; preds = %9
  br label %14

14:                                               ; preds = %13
  %15 = load i32, ptr %4, align 4
  %16 = call i32 @wait(ptr noundef %3)
  %17 = icmp eq i32 %15, %16
  br i1 %17, label %19, label %18

18:                                               ; preds = %14
  call void @_ZN32pxrInternal_v0_24__pxrReserved__10Arch_ErrorEPKcS1_mS1_(ptr noundef @.str.2, ptr noundef @__func__._ZN32pxrInternal_v0_24__pxrReserved__13ArchTestCrashENS_17ArchTestCrashModeE, i64 noundef 149, ptr noundef @.str.1) #11
  unreachable

19:                                               ; preds = %14
  %20 = load i32, ptr %3, align 4
  %21 = icmp sgt i32 %20, 1
  br i1 %21, label %23, label %22

22:                                               ; preds = %19
  call void @_ZN32pxrInternal_v0_24__pxrReserved__10Arch_ErrorEPKcS1_mS1_(ptr noundef @.str.3, ptr noundef @__func__._ZN32pxrInternal_v0_24__pxrReserved__13ArchTestCrashENS_17ArchTestCrashModeE, i64 noundef 158, ptr noundef @.str.1) #11
  unreachable

23:                                               ; preds = %19
  ret void
}