; Function Attrs: mustprogress uwtable
define dso_local void @_ZN32pxrInternal_v0_24__pxrReserved__13ArchTestCrashENS_17ArchTestCrashModeE(i32 noundef %0) local_unnamed_addr #0 {
  %2 = alloca i32, align 4
  %3 = tail call i32 @fork() #13
  switch i32 %3, label %6 [
    i32 0, label %4
    i32 -1, label %5
  ]

4:                                                ; preds = %1
  tail call fastcc void @_ZN32pxrInternal_v0_24__pxrReserved__12_GLOBAL__N_114Arch_TestCrashENS_17ArchTestCrashModeE(i32 noundef %0)
  tail call void @_exit(i32 noundef 0) #14
  unreachable

5:                                                ; preds = %1
  tail call void @_ZN32pxrInternal_v0_24__pxrReserved__12Arch_WarningEPKcS1_mS1_(ptr noundef nonnull @.str, ptr noundef nonnull @__func__._ZN32pxrInternal_v0_24__pxrReserved__13ArchTestCrashENS_17ArchTestCrashModeE, i64 noundef 144, ptr noundef nonnull @.str.1)
  tail call void @_exit(i32 noundef 1) #14
  unreachable

6:                                                ; preds = %1
  %7 = call i32 @wait(ptr noundef nonnull %2)
  %8 = icmp eq i32 %3, %7
  br i1 %8, label %10, label %9

9:                                                ; preds = %6
  call void @_ZN32pxrInternal_v0_24__pxrReserved__10Arch_ErrorEPKcS1_mS1_(ptr noundef nonnull @.str.2, ptr noundef nonnull @__func__._ZN32pxrInternal_v0_24__pxrReserved__13ArchTestCrashENS_17ArchTestCrashModeE, i64 noundef 149, ptr noundef nonnull @.str.1) #14
  unreachable

10:                                               ; preds = %6
  %11 = load i32, ptr %2, align 4
  %12 = icmp sgt i32 %11, 1
  br i1 %12, label %14, label %13

13:                                               ; preds = %10
  call void @_ZN32pxrInternal_v0_24__pxrReserved__10Arch_ErrorEPKcS1_mS1_(ptr noundef nonnull @.str.3, ptr noundef nonnull @__func__._ZN32pxrInternal_v0_24__pxrReserved__13ArchTestCrashENS_17ArchTestCrashModeE, i64 noundef 158, ptr noundef nonnull @.str.1) #14
  unreachable

14:                                               ; preds = %10
  ret void
}